target datalayout = "e-m:e-p270:32:32-p271:32:32-p272:64:64-i64:64-i128:128-f80:128-n8:16:32:64-S128"
target triple = "x86_64-pc-linux-gnu"

@.str.2 = private unnamed_addr constant [6 x i8] c"%s/%s\00", align 1
@stderr = external global ptr, align 8
@.str.19 = private unnamed_addr constant [35 x i8] c"path lookup '%s' fails with: '%s'\0A\00", align 1

; Function Attrs: inlinehint nounwind uwtable
define internal ptr @g_realpath(ptr noundef %0) #7 {
  %2 = alloca ptr, align 8
  %3 = alloca [4096 x i8], align 16
  %4 = alloca ptr, align 8
  store ptr %0, ptr %2, align 8, !tbaa !6
  call void @llvm.lifetime.start.p0(i64 4096, ptr %3) #10
  call void @llvm.memset.p0.i64(ptr align 16 %3, i8 0, i64 4096, i1 false)
  call void @llvm.lifetime.start.p0(i64 8, ptr %4) #10
  %5 = load ptr, ptr %2, align 8, !tbaa !6
  %6 = getelementptr inbounds [4096 x i8], ptr %3, i64 0, i64 0
  %7 = call ptr @realpath(ptr noundef %5, ptr noundef %6) #10
  store ptr %7, ptr %4, align 8, !tbaa !6
  %8 = load ptr, ptr %4, align 8, !tbaa !6
  %9 = icmp ne ptr %8, null
  br i1 %9, label %10, label %13

10:                                               ; preds = %1
  %11 = getelementptr inbounds [4096 x i8], ptr %3, i64 0, i64 0
  %12 = call noalias ptr @g_strdup(ptr noundef %11)
  call void @llvm.lifetime.end.p0(i64 8, ptr %4) #10
  call void @llvm.lifetime.end.p0(i64 4096, ptr %3) #10
  ret ptr %12

13:                                               ; preds = %1
  %14 = load ptr, ptr @stderr, align 8, !tbaa !62
  %15 = load ptr, ptr %2, align 8, !tbaa !6
  %16 = call ptr @__errno_location() #13
  %17 = load i32, ptr %16, align 4, !tbaa !11
  %18 = call ptr @strerror(i32 noundef %17) #10
  %19 = call i32 (ptr, ptr, ...) @fprintf(ptr noundef %14, ptr noundef @.str.19, ptr noundef %15, ptr noundef %18) #10
  call void @exit(i32 noundef 1) #14
  unreachable
}

; Function Attrs: nounwind uwtable
define ptr @dt_loc_init_generic(ptr noundef %0, ptr noundef %1, ptr noundef %2) #0 {
  %4 = alloca ptr, align 8
  %5 = alloca ptr, align 8
  %6 = alloca ptr, align 8
  %7 = alloca ptr, align 8
  %8 = alloca ptr, align 8
  %9 = alloca [4096 x i8], align 16
  store ptr %0, ptr %4, align 8, !tbaa !6
  store ptr %1, ptr %5, align 8, !tbaa !6
  store ptr %2, ptr %6, align 8, !tbaa !6
  call void @llvm.lifetime.start.p0(i64 8, ptr %7) #10
  store ptr null, ptr %7, align 8, !tbaa !6
  call void @llvm.lifetime.start.p0(i64 8, ptr %8) #10
  store ptr null, ptr %8, align 8, !tbaa !6
  %10 = load ptr, ptr %4, align 8, !tbaa !6
  %11 = icmp ne ptr %10, null
  br i1 %11, label %12, label %15

12:                                               ; preds = %3
  %13 = load ptr, ptr %4, align 8, !tbaa !6
  %14 = call ptr @dt_util_fix_path(ptr noundef %13)
  store ptr %14, ptr %8, align 8, !tbaa !6
  br label %29

15:                                               ; preds = %3
  %16 = load ptr, ptr %5, align 8, !tbaa !6
  %17 = icmp ne ptr %16, null
  br i1 %17, label %18, label %25

18:                                               ; preds = %15
  call void @llvm.lifetime.start.p0(i64 4096, ptr %9) #10
  call void @llvm.memset.p0.i64(ptr align 16 %9, i8 0, i64 4096, i1 false)
  %19 = getelementptr inbounds [4096 x i8], ptr %9, i64 0, i64 0
  %20 = load ptr, ptr %5, align 8, !tbaa !6
  %21 = load ptr, ptr %6, align 8, !tbaa !6
  %22 = call i32 (ptr, i64, ptr, ...) @g_snprintf(ptr noundef %19, i64 noundef 4096, ptr noundef @.str.2, ptr noundef %20, ptr noundef %21)
  %23 = getelementptr inbounds [4096 x i8], ptr %9, i64 0, i64 0
  %24 = call noalias ptr @g_strdup(ptr noundef %23)
  store ptr %24, ptr %8, align 8, !tbaa !6
  call void @llvm.lifetime.end.p0(i64 4096, ptr %9) #10
  br label %28

25:                                               ; preds = %15
  %26 = load ptr, ptr %6, align 8, !tbaa !6
  %27 = call noalias ptr @g_strdup(ptr noundef %26)
  store ptr %27, ptr %8, align 8, !tbaa !6
  br label %28

28:                                               ; preds = %25, %18
  br label %29

29:                                               ; preds = %28, %12
  %30 = load ptr, ptr %8, align 8, !tbaa !6
  %31 = call i32 @g_file_test(ptr noundef %30, i32 noundef 16)
  %32 = icmp eq i32 %31, 0
  br i1 %32, label %33, label %36

33:                                               ; preds = %29
  %34 = load ptr, ptr %8, align 8, !tbaa !6
  %35 = call i32 @g_mkdir_with_parents(ptr noundef %34, i32 noundef 448)
  br label %36

36:                                               ; preds = %33, %29
  %37 = load ptr, ptr %8, align 8, !tbaa !6
  %38 = call ptr @g_realpath(ptr noundef %37)
  store ptr %38, ptr %7, align 8, !tbaa !6
  %39 = load ptr, ptr %8, align 8, !tbaa !6
  call void @g_free(ptr noundef %39)
  %40 = load ptr, ptr %7, align 8, !tbaa !6
  call void @llvm.lifetime.end.p0(i64 8, ptr %8) #10
  call void @llvm.lifetime.end.p0(i64 8, ptr %7) #10
  ret ptr %40
}