; Function Attrs: nounwind uwtable
define noalias ptr @dt_loc_init_generic(ptr noundef %0, ptr noundef %1, ptr noundef %2) local_unnamed_addr #0 {
  %4 = alloca [4096 x i8], align 16
  %5 = alloca [4096 x i8], align 16
  %.not = icmp eq ptr %0, null
  br i1 %.not, label %8, label %6

6:                                                ; preds = %3
  %7 = tail call ptr @dt_util_fix_path(ptr noundef nonnull %0) #11
  br label %14

8:                                                ; preds = %3
  %.not13 = icmp eq ptr %1, null
  br i1 %.not13, label %12, label %9

9:                                                ; preds = %8
  call void @llvm.lifetime.start.p0(i64 4096, ptr nonnull %5) #11
  call void @llvm.memset.p0.i64(ptr noundef nonnull align 16 dereferenceable(4096) %5, i8 0, i64 4096, i1 false)
  %10 = call i32 (ptr, i64, ptr, ...) @g_snprintf(ptr noundef nonnull %5, i64 noundef 4096, ptr noundef nonnull @.str.2, ptr noundef nonnull %1, ptr noundef %2) #11
  %11 = call noalias ptr @g_strdup(ptr noundef nonnull %5) #11
  call void @llvm.lifetime.end.p0(i64 4096, ptr nonnull %5) #11
  br label %14

12:                                               ; preds = %8
  %13 = tail call noalias ptr @g_strdup(ptr noundef %2) #11
  br label %14

14:                                               ; preds = %9, %12, %6
  %.0 = phi ptr [ %7, %6 ], [ %11, %9 ], [ %13, %12 ]
  %15 = call i32 @g_file_test(ptr noundef %.0, i32 noundef 16) #11
  %16 = icmp eq i32 %15, 0
  br i1 %16, label %17, label %19

17:                                               ; preds = %14
  %18 = call i32 @g_mkdir_with_parents(ptr noundef %.0, i32 noundef 448) #11
  br label %19

19:                                               ; preds = %17, %14
  call void @llvm.lifetime.start.p0(i64 4096, ptr nonnull %4) #11
  call void @llvm.memset.p0.i64(ptr noundef nonnull align 16 dereferenceable(4096) %4, i8 0, i64 4096, i1 false)
  %20 = call ptr @realpath(ptr noundef %.0, ptr noundef nonnull %4) #11
  %.not.i = icmp eq ptr %20, null
  br i1 %.not.i, label %21, label %g_realpath.exit

21:                                               ; preds = %19
  %22 = load ptr, ptr @stderr, align 8, !tbaa !61
  %23 = tail call ptr @__errno_location() #14
  %24 = load i32, ptr %23, align 4, !tbaa !6
  %25 = call ptr @strerror(i32 noundef %24) #11
  %26 = call i32 (ptr, ptr, ...) @fprintf(ptr noundef %22, ptr noundef nonnull @.str.19, ptr noundef %.0, ptr noundef %25) #15
  call void @exit(i32 noundef 1) #16
  unreachable

g_realpath.exit:                                  ; preds = %19
  %27 = call noalias ptr @g_strdup(ptr noundef nonnull %4) #11
  call void @llvm.lifetime.end.p0(i64 4096, ptr nonnull %4) #11
  call void @g_free(ptr noundef %.0) #11
  ret ptr %27
}